; Function Attrs: mustprogress nounwind uwtable
define dso_local void @_ZN4pbrt22FormattingParserTargetD2Ev(ptr noundef nonnull align 8 dereferenceable(216) %this) unnamed_addr #14 align 2 personality ptr @__gxx_personality_v0 {
entry:
  store ptr getelementptr inbounds ({ [43 x ptr] }, ptr @_ZTVN4pbrt22FormattingParserTargetE, i64 0, i32 0, i64 2), ptr %this, align 8
  %errorExit = getelementptr inbounds i8, ptr %this, i64 8
  %0 = load i8, ptr %errorExit, align 8
  %1 = and i8 %0, 1
  %tobool.not = icmp eq i8 %1, 0
  br i1 %tobool.not, label %if.end, label %if.then

if.then:                                          ; preds = %entry
  invoke void @_ZN4pbrt9ErrorExitIJEEEvPKcDpOT_(ptr noundef nonnull @.str.86) #31
          to label %invoke.cont unwind label %terminate.lpad

invoke.cont:                                      ; preds = %if.then
  unreachable

if.end:                                           ; preds = %entry
  %definedObjectInstances = getelementptr inbounds i8, ptr %this, i64 168
  %_M_parent.i.i.i.i = getelementptr inbounds i8, ptr %this, i64 184
  %2 = load ptr, ptr %_M_parent.i.i.i.i, align 8
  invoke void @_ZNSt8_Rb_treeINSt7__cxx1112basic_stringIcSt11char_traitsIcESaIcEEESt4pairIKS5_S5_ESt10_Select1stIS8_ESt4lessIS5_ESaIS8_EE8_M_eraseEPSt13_Rb_tree_nodeIS8_E(ptr noundef nonnull align 8 dereferenceable(48) %definedObjectInstances, ptr noundef %2)
          to label %_ZNSt3mapINSt7__cxx1112basic_stringIcSt11char_traitsIcESaIcEEES5_St4lessIS5_ESaISt4pairIKS5_S5_EEED2Ev.exit unwind label %terminate.lpad.i.i

terminate.lpad.i.i:                               ; preds = %if.end
  %3 = landingpad { ptr, i32 }
          catch ptr null
  %4 = extractvalue { ptr, i32 } %3, 0
  tail call void @__clang_call_terminate(ptr %4) #33
  unreachable

_ZNSt3mapINSt7__cxx1112basic_stringIcSt11char_traitsIcESaIcEEES5_St4lessIS5_ESaISt4pairIKS5_S5_EEED2Ev.exit: ; preds = %if.end
  %namedMaterialDictionaries = getelementptr inbounds i8, ptr %this, i64 120
  %_M_parent.i.i.i.i1 = getelementptr inbounds i8, ptr %this, i64 136
  %5 = load ptr, ptr %_M_parent.i.i.i.i1, align 8
  invoke void @_ZNSt8_Rb_treeINSt7__cxx1112basic_stringIcSt11char_traitsIcESaIcEEESt4pairIKS5_N4pbrt19ParameterDictionaryEESt10_Select1stISA_ESt4lessIS5_ESaISA_EE8_M_eraseEPSt13_Rb_tree_nodeISA_E(ptr noundef nonnull align 8 dereferenceable(48) %namedMaterialDictionaries, ptr noundef %5)
          to label %_ZNSt3mapINSt7__cxx1112basic_stringIcSt11char_traitsIcESaIcEEEN4pbrt19ParameterDictionaryESt4lessIS5_ESaISt4pairIKS5_S7_EEED2Ev.exit unwind label %terminate.lpad.i.i2

terminate.lpad.i.i2:                              ; preds = %_ZNSt3mapINSt7__cxx1112basic_stringIcSt11char_traitsIcESaIcEEES5_St4lessIS5_ESaISt4pairIKS5_S5_EEED2Ev.exit
  %6 = landingpad { ptr, i32 }
          catch ptr null
  %7 = extractvalue { ptr, i32 } %6, 0
  tail call void @__clang_call_terminate(ptr %7) #33
  unreachable

_ZNSt3mapINSt7__cxx1112basic_stringIcSt11char_traitsIcESaIcEEEN4pbrt19ParameterDictionaryESt4lessIS5_ESaISt4pairIKS5_S7_EEED2Ev.exit: ; preds = %_ZNSt3mapINSt7__cxx1112basic_stringIcSt11char_traitsIcESaIcEEES5_St4lessIS5_ESaISt4pairIKS5_S5_EEED2Ev.exit
  %definedNamedMaterials = getelementptr inbounds i8, ptr %this, i64 72
  %_M_parent.i.i.i.i3 = getelementptr inbounds i8, ptr %this, i64 88
  %8 = load ptr, ptr %_M_parent.i.i.i.i3, align 8
  invoke void @_ZNSt8_Rb_treeINSt7__cxx1112basic_stringIcSt11char_traitsIcESaIcEEESt4pairIKS5_S5_ESt10_Select1stIS8_ESt4lessIS5_ESaIS8_EE8_M_eraseEPSt13_Rb_tree_nodeIS8_E(ptr noundef nonnull align 8 dereferenceable(48) %definedNamedMaterials, ptr noundef %8)
          to label %_ZNSt3mapINSt7__cxx1112basic_stringIcSt11char_traitsIcESaIcEEES5_St4lessIS5_ESaISt4pairIKS5_S5_EEED2Ev.exit5 unwind label %terminate.lpad.i.i4

terminate.lpad.i.i4:                              ; preds = %_ZNSt3mapINSt7__cxx1112basic_stringIcSt11char_traitsIcESaIcEEEN4pbrt19ParameterDictionaryESt4lessIS5_ESaISt4pairIKS5_S7_EEED2Ev.exit
  %9 = landingpad { ptr, i32 }
          catch ptr null
  %10 = extractvalue { ptr, i32 } %9, 0
  tail call void @__clang_call_terminate(ptr %10) #33
  unreachable

_ZNSt3mapINSt7__cxx1112basic_stringIcSt11char_traitsIcESaIcEEES5_St4lessIS5_ESaISt4pairIKS5_S5_EEED2Ev.exit5: ; preds = %_ZNSt3mapINSt7__cxx1112basic_stringIcSt11char_traitsIcESaIcEEEN4pbrt19ParameterDictionaryESt4lessIS5_ESaISt4pairIKS5_S7_EEED2Ev.exit
  %definedTextures = getelementptr inbounds i8, ptr %this, i64 24
  %_M_parent.i.i.i.i6 = getelementptr inbounds i8, ptr %this, i64 40
  %11 = load ptr, ptr %_M_parent.i.i.i.i6, align 8
  invoke void @_ZNSt8_Rb_treeINSt7__cxx1112basic_stringIcSt11char_traitsIcESaIcEEESt4pairIKS5_S5_ESt10_Select1stIS8_ESt4lessIS5_ESaIS8_EE8_M_eraseEPSt13_Rb_tree_nodeIS8_E(ptr noundef nonnull align 8 dereferenceable(48) %definedTextures, ptr noundef %11)
          to label %_ZNSt3mapINSt7__cxx1112basic_stringIcSt11char_traitsIcESaIcEEES5_St4lessIS5_ESaISt4pairIKS5_S5_EEED2Ev.exit8 unwind label %terminate.lpad.i.i7

terminate.lpad.i.i7:                              ; preds = %_ZNSt3mapINSt7__cxx1112basic_stringIcSt11char_traitsIcESaIcEEES5_St4lessIS5_ESaISt4pairIKS5_S5_EEED2Ev.exit5
  %12 = landingpad { ptr, i32 }
          catch ptr null
  %13 = extractvalue { ptr, i32 } %12, 0
  tail call void @__clang_call_terminate(ptr %13) #33
  unreachable

_ZNSt3mapINSt7__cxx1112basic_stringIcSt11char_traitsIcESaIcEEES5_St4lessIS5_ESaISt4pairIKS5_S5_EEED2Ev.exit8: ; preds = %_ZNSt3mapINSt7__cxx1112basic_stringIcSt11char_traitsIcESaIcEEES5_St4lessIS5_ESaISt4pairIKS5_S5_EEED2Ev.exit5
  ret void

terminate.lpad:                                   ; preds = %if.then
  %14 = landingpad { ptr, i32 }
          catch ptr null
  %15 = extractvalue { ptr, i32 } %14, 0
  tail call void @__clang_call_terminate(ptr %15) #33
  unreachable
}